; Function Attrs: nofree norecurse nosync nounwind memory(readwrite, inaccessiblemem: none) uwtable
define internal noundef i32 @sdr_dblp(ptr noundef readonly captures(none) %0, ptr readnone captures(none) %1, i32 noundef %2, i32 noundef %3) #4 {
  %5 = getelementptr inbounds nuw i8, ptr %0, i64 72
  %6 = load ptr, ptr %5, align 8, !tbaa !4
  %7 = getelementptr inbounds nuw i8, ptr %6, i64 32
  %8 = load ptr, ptr %7, align 8, !tbaa !57
  %9 = getelementptr inbounds nuw i8, ptr %8, i64 388
  %10 = load i32, ptr %9, align 4, !tbaa !65
  %11 = mul nsw i32 %10, %2
  %12 = sdiv i32 %11, %3
  %13 = add nsw i32 %2, 1
  %14 = mul nsw i32 %10, %13
  %15 = sdiv i32 %14, %3
  %16 = getelementptr inbounds nuw i8, ptr %8, i64 112
  %17 = load i32, ptr %16, align 8, !tbaa !70
  %18 = icmp slt i32 %12, %15
  br i1 %18, label %.lr.ph50, label %._crit_edge51

.lr.ph50:                                         ; preds = %4
  %19 = getelementptr inbounds nuw i8, ptr %6, i64 40
  %20 = load ptr, ptr %19, align 8, !tbaa !57
  %21 = getelementptr inbounds nuw i8, ptr %6, i64 24
  %22 = load ptr, ptr %21, align 8, !tbaa !28
  %23 = getelementptr inbounds nuw i8, ptr %8, i64 96
  %24 = load ptr, ptr %23, align 8, !tbaa !71
  %25 = getelementptr inbounds nuw i8, ptr %20, i64 96
  %26 = load ptr, ptr %25, align 8, !tbaa !71
  %27 = icmp sgt i32 %17, 0
  br i1 %27, label %.lr.ph.us.preheader, label %._crit_edge51

.lr.ph.us.preheader:                              ; preds = %.lr.ph50
  %28 = sext i32 %12 to i64
  %wide.trip.count58 = sext i32 %15 to i64
  %wide.trip.count = zext nneg i32 %17 to i64
  br label %.lr.ph.us

.lr.ph.us:                                        ; preds = %.lr.ph.us.preheader, %._crit_edge.us
  %indvars.iv55 = phi i64 [ %28, %.lr.ph.us.preheader ], [ %indvars.iv.next56, %._crit_edge.us ]
  %29 = getelementptr inbounds ptr, ptr %24, i64 %indvars.iv55
  %30 = load ptr, ptr %29, align 8, !tbaa !72
  %31 = getelementptr inbounds ptr, ptr %26, i64 %indvars.iv55
  %32 = load ptr, ptr %31, align 8, !tbaa !72
  br label %33

33:                                               ; preds = %.lr.ph.us, %33
  %indvars.iv = phi i64 [ 0, %.lr.ph.us ], [ %indvars.iv.next, %33 ]
  %.04145.us = phi double [ 0.000000e+00, %.lr.ph.us ], [ %36, %33 ]
  %.04244.us = phi double [ 0.000000e+00, %.lr.ph.us ], [ %40, %33 ]
  %34 = getelementptr inbounds nuw double, ptr %30, i64 %indvars.iv
  %35 = load double, ptr %34, align 8, !tbaa !77
  %36 = tail call nsz double @llvm.fmuladd.f64(double %35, double %35, double %.04145.us)
  %37 = getelementptr inbounds nuw double, ptr %32, i64 %indvars.iv
  %38 = load double, ptr %37, align 8, !tbaa !77
  %39 = fsub nsz double %35, %38
  %40 = tail call nsz double @llvm.fmuladd.f64(double %39, double %39, double %.04244.us)
  %indvars.iv.next = add nuw nsw i64 %indvars.iv, 1
  %exitcond.not = icmp eq i64 %indvars.iv.next, %wide.trip.count
  br i1 %exitcond.not, label %._crit_edge.us, label %33, !llvm.loop !78

._crit_edge.us:                                   ; preds = %33
  %41 = getelementptr inbounds %struct.ChanStats, ptr %22, i64 %indvars.iv55
  %42 = getelementptr inbounds nuw i8, ptr %41, i64 16
  %43 = load double, ptr %42, align 8, !tbaa !31
  %44 = fadd nsz double %40, %43
  store double %44, ptr %42, align 8, !tbaa !31
  %45 = load double, ptr %41, align 8, !tbaa !29
  %46 = fadd nsz double %36, %45
  store double %46, ptr %41, align 8, !tbaa !29
  %indvars.iv.next56 = add nsw i64 %indvars.iv55, 1
  %exitcond59.not = icmp eq i64 %indvars.iv.next56, %wide.trip.count58
  br i1 %exitcond59.not, label %._crit_edge51, label %.lr.ph.us, !llvm.loop !79

._crit_edge51:                                    ; preds = %._crit_edge.us, %.lr.ph50, %4
  ret i32 0
}